; Function Attrs: nounwind uwtable
define ptr @l_Lean_Compiler_LCNF_normParam___at_Lean_Compiler_LCNF_normCodeImp___spec__4___rarg___boxed(ptr noundef %0, ptr noundef %1, ptr noundef %2, ptr noundef %3, ptr noundef %4, ptr noundef %5, ptr noundef %6, ptr noundef %7) #2 {
  %9 = ptrtoint ptr %0 to i64
  %10 = lshr i64 %9, 1
  %11 = trunc i64 %10 to i8
  %12 = and i64 %9, 1
  %.not = icmp eq i64 %12, 0
  br i1 %.not, label %13, label %lean_dec.exit19

13:                                               ; preds = %8
  %14 = load i32, ptr %0, align 4, !tbaa !8
  %15 = icmp sgt i32 %14, 1
  br i1 %15, label %16, label %18, !prof !11

16:                                               ; preds = %13
  %17 = add nsw i32 %14, -1
  store i32 %17, ptr %0, align 4, !tbaa !8
  br label %lean_dec.exit19

18:                                               ; preds = %13
  %.not.i = icmp eq i32 %14, 0
  br i1 %.not.i, label %lean_dec.exit19, label %19

19:                                               ; preds = %18
  tail call void @lean_dec_ref_cold(ptr noundef nonnull %0) #6
  br label %lean_dec.exit19

lean_dec.exit19:                                  ; preds = %19, %18, %16, %8
  %20 = getelementptr inbounds nuw i8, ptr %1, i64 24
  %21 = load ptr, ptr %20, align 8, !tbaa !4
  %22 = ptrtoint ptr %21 to i64
  %23 = and i64 %22, 1
  %.not.i30 = icmp eq i64 %23, 0
  br i1 %.not.i30, label %24, label %l_Lean_Compiler_LCNF_normParam___at_Lean_Compiler_LCNF_normCodeImp___spec__4___rarg.exit

24:                                               ; preds = %lean_dec.exit19
  %.val.i.i = load i32, ptr %21, align 4, !tbaa !8
  %25 = icmp sgt i32 %.val.i.i, 0
  br i1 %25, label %26, label %28, !prof !11

26:                                               ; preds = %24
  %27 = add nuw i32 %.val.i.i, 1
  store i32 %27, ptr %21, align 4, !tbaa !8
  br label %l_Lean_Compiler_LCNF_normParam___at_Lean_Compiler_LCNF_normCodeImp___spec__4___rarg.exit

28:                                               ; preds = %24
  %.not.i.i = icmp eq i32 %.val.i.i, 0
  br i1 %.not.i.i, label %l_Lean_Compiler_LCNF_normParam___at_Lean_Compiler_LCNF_normCodeImp___spec__4___rarg.exit, label %29

29:                                               ; preds = %28
  tail call void @lean_inc_ref_cold(ptr noundef nonnull %21) #6
  br label %l_Lean_Compiler_LCNF_normParam___at_Lean_Compiler_LCNF_normCodeImp___spec__4___rarg.exit

l_Lean_Compiler_LCNF_normParam___at_Lean_Compiler_LCNF_normCodeImp___spec__4___rarg.exit: ; preds = %lean_dec.exit19, %26, %28, %29
  %30 = tail call ptr @l___private_Lean_Compiler_LCNF_CompilerM_0__Lean_Compiler_LCNF_normExprImp_go(ptr noundef readonly %2, i8 noundef zeroext %11, ptr noundef %21)
  %31 = tail call ptr @l___private_Lean_Compiler_LCNF_CompilerM_0__Lean_Compiler_LCNF_updateParamImp(ptr noundef nonnull %1, ptr noundef %30, ptr readnone poison, ptr noundef %4, ptr readnone poison, ptr readnone poison, ptr noundef %7)
  %32 = ptrtoint ptr %6 to i64
  %33 = and i64 %32, 1
  %.not31 = icmp eq i64 %33, 0
  br i1 %.not31, label %34, label %lean_dec.exit18

34:                                               ; preds = %l_Lean_Compiler_LCNF_normParam___at_Lean_Compiler_LCNF_normCodeImp___spec__4___rarg.exit
  %35 = load i32, ptr %6, align 4, !tbaa !8
  %36 = icmp sgt i32 %35, 1
  br i1 %36, label %37, label %39, !prof !11

37:                                               ; preds = %34
  %38 = add nsw i32 %35, -1
  store i32 %38, ptr %6, align 4, !tbaa !8
  br label %lean_dec.exit18

39:                                               ; preds = %34
  %.not.i20 = icmp eq i32 %35, 0
  br i1 %.not.i20, label %lean_dec.exit18, label %40

40:                                               ; preds = %39
  tail call void @lean_dec_ref_cold(ptr noundef nonnull %6) #6
  br label %lean_dec.exit18

lean_dec.exit18:                                  ; preds = %40, %39, %37, %l_Lean_Compiler_LCNF_normParam___at_Lean_Compiler_LCNF_normCodeImp___spec__4___rarg.exit
  %41 = ptrtoint ptr %5 to i64
  %42 = and i64 %41, 1
  %.not32 = icmp eq i64 %42, 0
  br i1 %.not32, label %43, label %lean_dec.exit17

43:                                               ; preds = %lean_dec.exit18
  %44 = load i32, ptr %5, align 4, !tbaa !8
  %45 = icmp sgt i32 %44, 1
  br i1 %45, label %46, label %48, !prof !11

46:                                               ; preds = %43
  %47 = add nsw i32 %44, -1
  store i32 %47, ptr %5, align 4, !tbaa !8
  br label %lean_dec.exit17

48:                                               ; preds = %43
  %.not.i22 = icmp eq i32 %44, 0
  br i1 %.not.i22, label %lean_dec.exit17, label %49

49:                                               ; preds = %48
  tail call void @lean_dec_ref_cold(ptr noundef nonnull %5) #6
  br label %lean_dec.exit17

lean_dec.exit17:                                  ; preds = %49, %48, %46, %lean_dec.exit18
  %50 = ptrtoint ptr %4 to i64
  %51 = and i64 %50, 1
  %.not33 = icmp eq i64 %51, 0
  br i1 %.not33, label %52, label %lean_dec.exit16

52:                                               ; preds = %lean_dec.exit17
  %53 = load i32, ptr %4, align 4, !tbaa !8
  %54 = icmp sgt i32 %53, 1
  br i1 %54, label %55, label %57, !prof !11

55:                                               ; preds = %52
  %56 = add nsw i32 %53, -1
  store i32 %56, ptr %4, align 4, !tbaa !8
  br label %lean_dec.exit16

57:                                               ; preds = %52
  %.not.i24 = icmp eq i32 %53, 0
  br i1 %.not.i24, label %lean_dec.exit16, label %58

58:                                               ; preds = %57
  tail call void @lean_dec_ref_cold(ptr noundef nonnull %4) #6
  br label %lean_dec.exit16

lean_dec.exit16:                                  ; preds = %58, %57, %55, %lean_dec.exit17
  %59 = ptrtoint ptr %3 to i64
  %60 = and i64 %59, 1
  %.not34 = icmp eq i64 %60, 0
  br i1 %.not34, label %61, label %lean_dec.exit15

61:                                               ; preds = %lean_dec.exit16
  %62 = load i32, ptr %3, align 4, !tbaa !8
  %63 = icmp sgt i32 %62, 1
  br i1 %63, label %64, label %66, !prof !11

64:                                               ; preds = %61
  %65 = add nsw i32 %62, -1
  store i32 %65, ptr %3, align 4, !tbaa !8
  br label %lean_dec.exit15

66:                                               ; preds = %61
  %.not.i26 = icmp eq i32 %62, 0
  br i1 %.not.i26, label %lean_dec.exit15, label %67

67:                                               ; preds = %66
  tail call void @lean_dec_ref_cold(ptr noundef nonnull %3) #6
  br label %lean_dec.exit15

lean_dec.exit15:                                  ; preds = %67, %66, %64, %lean_dec.exit16
  %68 = ptrtoint ptr %2 to i64
  %69 = and i64 %68, 1
  %.not35 = icmp eq i64 %69, 0
  br i1 %.not35, label %70, label %lean_dec.exit

70:                                               ; preds = %lean_dec.exit15
  %71 = load i32, ptr %2, align 4, !tbaa !8
  %72 = icmp sgt i32 %71, 1
  br i1 %72, label %73, label %75, !prof !11

73:                                               ; preds = %70
  %74 = add nsw i32 %71, -1
  store i32 %74, ptr %2, align 4, !tbaa !8
  br label %lean_dec.exit

75:                                               ; preds = %70
  %.not.i28 = icmp eq i32 %71, 0
  br i1 %.not.i28, label %lean_dec.exit, label %76

76:                                               ; preds = %75
  tail call void @lean_dec_ref_cold(ptr noundef nonnull %2) #6
  br label %lean_dec.exit

lean_dec.exit:                                    ; preds = %76, %75, %73, %lean_dec.exit15
  ret ptr %31
}